target datalayout = "e-m:e-p270:32:32-p271:32:32-p272:64:64-i64:64-i128:128-f80:128-n8:16:32:64-S128"
target triple = "x86_64-pc-linux-gnu"

%struct._generic_N_Vector = type { ptr, ptr, ptr }
%struct._N_VectorContent_Serial = type { i64, i32, ptr }

; Function Attrs: nounwind uwtable
define i32 @N_VConstrMask_Serial(ptr noundef %0, ptr noundef %1, ptr noundef %2) #0 {
  %4 = alloca ptr, align 8
  %5 = alloca ptr, align 8
  %6 = alloca ptr, align 8
  %7 = alloca i64, align 8
  %8 = alloca i64, align 8
  %9 = alloca double, align 8
  %10 = alloca ptr, align 8
  %11 = alloca ptr, align 8
  %12 = alloca ptr, align 8
  %13 = alloca i32, align 4
  store ptr %0, ptr %4, align 8, !tbaa !10
  store ptr %1, ptr %5, align 8, !tbaa !10
  store ptr %2, ptr %6, align 8, !tbaa !10
  call void @llvm.lifetime.start.p0(i64 8, ptr %7) #6
  call void @llvm.lifetime.start.p0(i64 8, ptr %8) #6
  call void @llvm.lifetime.start.p0(i64 8, ptr %9) #6
  call void @llvm.lifetime.start.p0(i64 8, ptr %10) #6
  call void @llvm.lifetime.start.p0(i64 8, ptr %11) #6
  call void @llvm.lifetime.start.p0(i64 8, ptr %12) #6
  call void @llvm.lifetime.start.p0(i64 4, ptr %13) #6
  store ptr null, ptr %12, align 8, !tbaa !69
  store ptr null, ptr %11, align 8, !tbaa !69
  store ptr null, ptr %10, align 8, !tbaa !69
  %14 = load ptr, ptr %5, align 8, !tbaa !10
  %15 = getelementptr inbounds nuw %struct._generic_N_Vector, ptr %14, i32 0, i32 0
  %16 = load ptr, ptr %15, align 8, !tbaa !61
  %17 = getelementptr inbounds nuw %struct._N_VectorContent_Serial, ptr %16, i32 0, i32 0
  %18 = load i64, ptr %17, align 8, !tbaa !62
  store i64 %18, ptr %8, align 8, !tbaa !3
  %19 = load ptr, ptr %5, align 8, !tbaa !10
  %20 = getelementptr inbounds nuw %struct._generic_N_Vector, ptr %19, i32 0, i32 0
  %21 = load ptr, ptr %20, align 8, !tbaa !61
  %22 = getelementptr inbounds nuw %struct._N_VectorContent_Serial, ptr %21, i32 0, i32 2
  %23 = load ptr, ptr %22, align 8, !tbaa !67
  store ptr %23, ptr %11, align 8, !tbaa !69
  %24 = load ptr, ptr %4, align 8, !tbaa !10
  %25 = getelementptr inbounds nuw %struct._generic_N_Vector, ptr %24, i32 0, i32 0
  %26 = load ptr, ptr %25, align 8, !tbaa !61
  %27 = getelementptr inbounds nuw %struct._N_VectorContent_Serial, ptr %26, i32 0, i32 2
  %28 = load ptr, ptr %27, align 8, !tbaa !67
  store ptr %28, ptr %10, align 8, !tbaa !69
  %29 = load ptr, ptr %6, align 8, !tbaa !10
  %30 = getelementptr inbounds nuw %struct._generic_N_Vector, ptr %29, i32 0, i32 0
  %31 = load ptr, ptr %30, align 8, !tbaa !61
  %32 = getelementptr inbounds nuw %struct._N_VectorContent_Serial, ptr %31, i32 0, i32 2
  %33 = load ptr, ptr %32, align 8, !tbaa !67
  store ptr %33, ptr %12, align 8, !tbaa !69
  store double 0.000000e+00, ptr %9, align 8, !tbaa !72
  store i64 0, ptr %7, align 8, !tbaa !3
  br label %34

34:                                               ; preds = %96, %3
  %35 = load i64, ptr %7, align 8, !tbaa !3
  %36 = load i64, ptr %8, align 8, !tbaa !3
  %37 = icmp slt i64 %35, %36
  br i1 %37, label %38, label %99

38:                                               ; preds = %34
  %39 = load ptr, ptr %12, align 8, !tbaa !69
  %40 = load i64, ptr %7, align 8, !tbaa !3
  %41 = getelementptr inbounds double, ptr %39, i64 %40
  store double 0.000000e+00, ptr %41, align 8, !tbaa !72
  %42 = load ptr, ptr %10, align 8, !tbaa !69
  %43 = load i64, ptr %7, align 8, !tbaa !3
  %44 = getelementptr inbounds double, ptr %42, i64 %43
  %45 = load double, ptr %44, align 8, !tbaa !72
  %46 = fcmp oeq double %45, 0.000000e+00
  br i1 %46, label %47, label %48

47:                                               ; preds = %38
  br label %96

48:                                               ; preds = %38
  %49 = load ptr, ptr %10, align 8, !tbaa !69
  %50 = load i64, ptr %7, align 8, !tbaa !3
  %51 = getelementptr inbounds double, ptr %49, i64 %50
  %52 = load double, ptr %51, align 8, !tbaa !72
  %53 = call double @llvm.fabs.f64(double %52)
  %54 = fcmp ogt double %53, 1.500000e+00
  br i1 %54, label %55, label %66

55:                                               ; preds = %48
  %56 = load ptr, ptr %11, align 8, !tbaa !69
  %57 = load i64, ptr %7, align 8, !tbaa !3
  %58 = getelementptr inbounds double, ptr %56, i64 %57
  %59 = load double, ptr %58, align 8, !tbaa !72
  %60 = load ptr, ptr %10, align 8, !tbaa !69
  %61 = load i64, ptr %7, align 8, !tbaa !3
  %62 = getelementptr inbounds double, ptr %60, i64 %61
  %63 = load double, ptr %62, align 8, !tbaa !72
  %64 = fmul double %59, %63
  %65 = fcmp ole double %64, 0.000000e+00
  br i1 %65, label %86, label %66

66:                                               ; preds = %55, %48
  %67 = load ptr, ptr %10, align 8, !tbaa !69
  %68 = load i64, ptr %7, align 8, !tbaa !3
  %69 = getelementptr inbounds double, ptr %67, i64 %68
  %70 = load double, ptr %69, align 8, !tbaa !72
  %71 = call double @llvm.fabs.f64(double %70)
  %72 = fcmp ogt double %71, 5.000000e-01
  br i1 %72, label %73, label %84

73:                                               ; preds = %66
  %74 = load ptr, ptr %11, align 8, !tbaa !69
  %75 = load i64, ptr %7, align 8, !tbaa !3
  %76 = getelementptr inbounds double, ptr %74, i64 %75
  %77 = load double, ptr %76, align 8, !tbaa !72
  %78 = load ptr, ptr %10, align 8, !tbaa !69
  %79 = load i64, ptr %7, align 8, !tbaa !3
  %80 = getelementptr inbounds double, ptr %78, i64 %79
  %81 = load double, ptr %80, align 8, !tbaa !72
  %82 = fmul double %77, %81
  %83 = fcmp olt double %82, 0.000000e+00
  br label %84

84:                                               ; preds = %73, %66
  %85 = phi i1 [ false, %66 ], [ %83, %73 ]
  br label %86

86:                                               ; preds = %84, %55
  %87 = phi i1 [ true, %55 ], [ %85, %84 ]
  %88 = zext i1 %87 to i32
  store i32 %88, ptr %13, align 4, !tbaa !74
  %89 = load i32, ptr %13, align 4, !tbaa !74
  %90 = icmp ne i32 %89, 0
  br i1 %90, label %91, label %95

91:                                               ; preds = %86
  %92 = load ptr, ptr %12, align 8, !tbaa !69
  %93 = load i64, ptr %7, align 8, !tbaa !3
  %94 = getelementptr inbounds double, ptr %92, i64 %93
  store double 1.000000e+00, ptr %94, align 8, !tbaa !72
  store double 1.000000e+00, ptr %9, align 8, !tbaa !72
  br label %95

95:                                               ; preds = %91, %86
  br label %96

96:                                               ; preds = %95, %47
  %97 = load i64, ptr %7, align 8, !tbaa !3
  %98 = add nsw i64 %97, 1
  store i64 %98, ptr %7, align 8, !tbaa !3
  br label %34

99:                                               ; preds = %34
  %100 = load double, ptr %9, align 8, !tbaa !72
  %101 = fcmp oeq double %100, 1.000000e+00
  %102 = select i1 %101, i32 0, i32 1
  call void @llvm.lifetime.end.p0(i64 4, ptr %13) #6
  call void @llvm.lifetime.end.p0(i64 8, ptr %12) #6
  call void @llvm.lifetime.end.p0(i64 8, ptr %11) #6
  call void @llvm.lifetime.end.p0(i64 8, ptr %10) #6
  call void @llvm.lifetime.end.p0(i64 8, ptr %9) #6
  call void @llvm.lifetime.end.p0(i64 8, ptr %8) #6
  call void @llvm.lifetime.end.p0(i64 8, ptr %7) #6
  ret i32 %102
}