; Function Attrs: nofree norecurse nosync nounwind memory(readwrite, inaccessiblemem: none) uwtable
define range(i32 0, 2) i32 @N_VConstrMask_Serial(ptr noundef readonly captures(none) %0, ptr noundef readonly captures(none) %1, ptr noundef readonly captures(none) %2) #7 {
  %4 = load ptr, ptr %1, align 8, !tbaa !54
  %5 = load i64, ptr %4, align 8, !tbaa !55
  %6 = getelementptr inbounds nuw i8, ptr %4, i64 16
  %7 = load ptr, ptr %6, align 8, !tbaa !61
  %8 = load ptr, ptr %0, align 8, !tbaa !54
  %9 = getelementptr inbounds nuw i8, ptr %8, i64 16
  %10 = load ptr, ptr %9, align 8, !tbaa !61
  %11 = load ptr, ptr %2, align 8, !tbaa !54
  %12 = getelementptr inbounds nuw i8, ptr %11, i64 16
  %13 = load ptr, ptr %12, align 8, !tbaa !61
  %14 = icmp sgt i64 %5, 0
  br i1 %14, label %.lr.ph, label %._crit_edge

.lr.ph:                                           ; preds = %3, %.critedge29
  %.031 = phi i64 [ %34, %.critedge29 ], [ 0, %3 ]
  %.02630 = phi double [ %.1, %.critedge29 ], [ 0.000000e+00, %3 ]
  %15 = getelementptr inbounds nuw double, ptr %13, i64 %.031
  store double 0.000000e+00, ptr %15, align 8, !tbaa !64
  %16 = getelementptr inbounds nuw double, ptr %10, i64 %.031
  %17 = load double, ptr %16, align 8, !tbaa !64
  %18 = fcmp oeq double %17, 0.000000e+00
  br i1 %18, label %.critedge29, label %19

19:                                               ; preds = %.lr.ph
  %20 = tail call double @llvm.fabs.f64(double %17)
  %21 = fcmp ogt double %20, 1.500000e+00
  br i1 %21, label %22, label %27

22:                                               ; preds = %19
  %23 = getelementptr inbounds nuw double, ptr %7, i64 %.031
  %24 = load double, ptr %23, align 8, !tbaa !64
  %25 = fmul double %17, %24
  %26 = fcmp ugt double %25, 0.000000e+00
  br i1 %26, label %27, label %.critedge

27:                                               ; preds = %22, %19
  %28 = fcmp ogt double %20, 5.000000e-01
  br i1 %28, label %29, label %.critedge29

29:                                               ; preds = %27
  %30 = getelementptr inbounds nuw double, ptr %7, i64 %.031
  %31 = load double, ptr %30, align 8, !tbaa !64
  %32 = fmul double %17, %31
  %33 = fcmp olt double %32, 0.000000e+00
  br i1 %33, label %.critedge, label %.critedge29

.critedge:                                        ; preds = %22, %29
  store double 1.000000e+00, ptr %15, align 8, !tbaa !64
  br label %.critedge29

.critedge29:                                      ; preds = %27, %29, %.critedge, %.lr.ph
  %.1 = phi double [ %.02630, %.lr.ph ], [ 1.000000e+00, %.critedge ], [ %.02630, %29 ], [ %.02630, %27 ]
  %34 = add nuw nsw i64 %.031, 1
  %exitcond.not = icmp eq i64 %34, %5
  br i1 %exitcond.not, label %._crit_edge.loopexit, label %.lr.ph

._crit_edge.loopexit:                             ; preds = %.critedge29
  %35 = fcmp une double %.1, 1.000000e+00
  %36 = zext i1 %35 to i32
  br label %._crit_edge

._crit_edge:                                      ; preds = %._crit_edge.loopexit, %3
  %.026.lcssa = phi i32 [ 1, %3 ], [ %36, %._crit_edge.loopexit ]
  ret i32 %.026.lcssa
}